; Function Attrs: mustprogress uwtable
define ptr @_ZN21MeshDocumentStateData4findEi(ptr noundef nonnull align 8 dereferenceable(16) %0, i32 noundef %1) local_unnamed_addr #10 align 2 personality ptr @__gxx_personality_v0 {
_ZN11QReadLockerC2EP14QReadWriteLock.exit:
  %2 = alloca %class.QReadLocker, align 8
  %3 = ptrtoint ptr %0 to i64
  tail call void @_ZN14QReadWriteLock11lockForReadEv(ptr noundef nonnull align 8 dereferenceable(8) %0)
  %4 = or disjoint i64 %3, 1
  store i64 %4, ptr %2, align 8
  %5 = getelementptr inbounds nuw i8, ptr %0, i64 8
  %6 = load ptr, ptr %5, align 8
  %7 = load atomic i32, ptr %6 monotonic, align 4
  %8 = icmp ugt i32 %7, 1
  br i1 %8, label %9, label %_ZN4QMapIi18MeshModelStateDataE6detachEv.exit.i

9:                                                ; preds = %_ZN11QReadLockerC2EP14QReadWriteLock.exit
  invoke void @_ZN4QMapIi18MeshModelStateDataE13detach_helperEv(ptr noundef nonnull align 8 dereferenceable(8) %5)
          to label %.noexc unwind label %26

.noexc:                                           ; preds = %9
  %.pre.i = load ptr, ptr %5, align 8
  br label %_ZN4QMapIi18MeshModelStateDataE6detachEv.exit.i

_ZN4QMapIi18MeshModelStateDataE6detachEv.exit.i:  ; preds = %.noexc, %_ZN11QReadLockerC2EP14QReadWriteLock.exit
  %10 = phi ptr [ %6, %_ZN11QReadLockerC2EP14QReadWriteLock.exit ], [ %.pre.i, %.noexc ]
  %11 = getelementptr inbounds nuw i8, ptr %10, i64 16
  %12 = load ptr, ptr %11, align 8
  %.not.i.i = icmp eq ptr %12, null
  br i1 %.not.i.i, label %20, label %.preheader

.preheader:                                       ; preds = %_ZN4QMapIi18MeshModelStateDataE6detachEv.exit.i, %.preheader
  %.011.i.i.i = phi ptr [ %.1.i.i.i, %.preheader ], [ null, %_ZN4QMapIi18MeshModelStateDataE6detachEv.exit.i ]
  %.0810.i.i.i = phi ptr [ %.19.i.i.i, %.preheader ], [ %12, %_ZN4QMapIi18MeshModelStateDataE6detachEv.exit.i ]
  %13 = getelementptr inbounds nuw i8, ptr %.0810.i.i.i, i64 24
  %14 = load i32, ptr %13, align 4
  %15 = icmp slt i32 %14, %1
  %.19.in.v.i.i.i = select i1 %15, i64 16, i64 8
  %.19.in.i.i.i = getelementptr inbounds nuw i8, ptr %.0810.i.i.i, i64 %.19.in.v.i.i.i
  %.1.i.i.i = select i1 %15, ptr %.011.i.i.i, ptr %.0810.i.i.i
  %.19.i.i.i = load ptr, ptr %.19.in.i.i.i, align 8
  %.not.i.i.i = icmp eq ptr %.19.i.i.i, null
  br i1 %.not.i.i.i, label %_ZN8QMapNodeIi18MeshModelStateDataE10lowerBoundERKi.exit.i.i, label %.preheader, !llvm.loop !11

_ZN8QMapNodeIi18MeshModelStateDataE10lowerBoundERKi.exit.i.i: ; preds = %.preheader
  %.not11.i.i = icmp eq ptr %.1.i.i.i, null
  br i1 %.not11.i.i, label %20, label %16

16:                                               ; preds = %_ZN8QMapNodeIi18MeshModelStateDataE10lowerBoundERKi.exit.i.i
  %17 = getelementptr inbounds nuw i8, ptr %.1.i.i.i, i64 24
  %18 = load i32, ptr %17, align 4
  %19 = icmp slt i32 %1, %18
  br i1 %19, label %20, label %_ZN4QMapIi18MeshModelStateDataE4findERKi.exit

20:                                               ; preds = %16, %_ZN8QMapNodeIi18MeshModelStateDataE10lowerBoundERKi.exit.i.i, %_ZN4QMapIi18MeshModelStateDataE6detachEv.exit.i
  %21 = getelementptr inbounds nuw i8, ptr %10, i64 8
  br label %_ZN4QMapIi18MeshModelStateDataE4findERKi.exit

_ZN4QMapIi18MeshModelStateDataE4findERKi.exit:    ; preds = %16, %20
  %22 = phi ptr [ %21, %20 ], [ %.1.i.i.i, %16 ]
  invoke void @_ZN14QReadWriteLock6unlockEv(ptr noundef nonnull align 8 dereferenceable(8) %0)
          to label %_ZN11QReadLockerD2Ev.exit unwind label %23

23:                                               ; preds = %_ZN4QMapIi18MeshModelStateDataE4findERKi.exit
  %24 = landingpad { ptr, i32 }
          catch ptr null
  %25 = extractvalue { ptr, i32 } %24, 0
  tail call void @__clang_call_terminate(ptr %25) #17
  unreachable

_ZN11QReadLockerD2Ev.exit:                        ; preds = %_ZN4QMapIi18MeshModelStateDataE4findERKi.exit
  ret ptr %22

26:                                               ; preds = %9
  %27 = landingpad { ptr, i32 }
          cleanup
  call void @_ZN11QReadLockerD2Ev(ptr noundef nonnull align 8 dereferenceable(8) %2) #16
  resume { ptr, i32 } %27
}